target datalayout = "e-m:e-p270:32:32-p271:32:32-p272:64:64-i64:64-i128:128-f80:128-n8:16:32:64-S128"
target triple = "x86_64-pc-linux-gnu"

@.str.4 = private unnamed_addr constant [2 x i8] c"\0A\00", align 1
@.str.5 = private unnamed_addr constant [38 x i8] c"    memory_map [options] [selection]\0A\00", align 1
@.str.6 = private unnamed_addr constant [78 x i8] c"This pass converts multiport memory cells as generated by the memory_collect\0A\00", align 1
@.str.7 = private unnamed_addr constant [46 x i8] c"pass to word-wide DFFs and address decoders.\0A\00", align 1
@.str.8 = private unnamed_addr constant [19 x i8] c"    -attr !<name>\0A\00", align 1
@.str.9 = private unnamed_addr constant [61 x i8] c"        do not map memories that have attribute <name> set.\0A\00", align 1
@.str.10 = private unnamed_addr constant [28 x i8] c"    -attr <name>[=<value>]\0A\00", align 1
@.str.11 = private unnamed_addr constant [81 x i8] c"        for memories that have attribute <name> set, only map them if its value\0A\00", align 1
@.str.12 = private unnamed_addr constant [82 x i8] c"        is a string <value> (if specified), or an integer 1 (otherwise). if this\0A\00", align 1
@.str.13 = private unnamed_addr constant [80 x i8] c"        option is specified multiple times, map the memory if the attribute is\0A\00", align 1
@.str.14 = private unnamed_addr constant [31 x i8] c"        to any of the values.\0A\00", align 1
@.str.15 = private unnamed_addr constant [12 x i8] c"    -iattr\0A\00", align 1
@.str.16 = private unnamed_addr constant [70 x i8] c"        for -attr, suppress case sensitivity in matching of <value>.\0A\00", align 1
@.str.17 = private unnamed_addr constant [15 x i8] c"    -rom-only\0A\00", align 1
@.str.18 = private unnamed_addr constant [74 x i8] c"        only perform conversion for ROMs (memories with no write ports).\0A\00", align 1
@.str.19 = private unnamed_addr constant [13 x i8] c"    -keepdc\0A\00", align 1
@.str.20 = private unnamed_addr constant [66 x i8] c"        when mapping ROMs, keep x-bits shared across read ports.\0A\00", align 1
@.str.21 = private unnamed_addr constant [13 x i8] c"    -formal\0A\00", align 1
@.str.22 = private unnamed_addr constant [73 x i8] c"        map memories for a global clock based formal verification flow.\0A\00", align 1
@.str.23 = private unnamed_addr constant [72 x i8] c"        This implies -keepdc, uses $ff cells for ROMs and sets hdlname\0A\00", align 1
@.str.24 = private unnamed_addr constant [71 x i8] c"        attributes. It also has limited support for async write ports\0A\00", align 1
@.str.25 = private unnamed_addr constant [38 x i8] c"        as generated by clk2fflogic.\0A\00", align 1

; Function Attrs: mustprogress uwtable
define internal void @_ZN12_GLOBAL__N_113MemoryMapPass4helpEv(ptr noundef nonnull align 8 dereferenceable(104) %0) unnamed_addr #4 align 2 {
  %2 = alloca ptr, align 8
  store ptr %0, ptr %2, align 8, !tbaa !6
  call void (ptr, ...) @_ZN5Yosys3logEPKcz(ptr noundef @.str.4)
  call void (ptr, ...) @_ZN5Yosys3logEPKcz(ptr noundef @.str.5)
  call void (ptr, ...) @_ZN5Yosys3logEPKcz(ptr noundef @.str.4)
  call void (ptr, ...) @_ZN5Yosys3logEPKcz(ptr noundef @.str.6)
  call void (ptr, ...) @_ZN5Yosys3logEPKcz(ptr noundef @.str.7)
  call void (ptr, ...) @_ZN5Yosys3logEPKcz(ptr noundef @.str.4)
  call void (ptr, ...) @_ZN5Yosys3logEPKcz(ptr noundef @.str.8)
  call void (ptr, ...) @_ZN5Yosys3logEPKcz(ptr noundef @.str.9)
  call void (ptr, ...) @_ZN5Yosys3logEPKcz(ptr noundef @.str.4)
  call void (ptr, ...) @_ZN5Yosys3logEPKcz(ptr noundef @.str.10)
  call void (ptr, ...) @_ZN5Yosys3logEPKcz(ptr noundef @.str.11)
  call void (ptr, ...) @_ZN5Yosys3logEPKcz(ptr noundef @.str.12)
  call void (ptr, ...) @_ZN5Yosys3logEPKcz(ptr noundef @.str.13)
  call void (ptr, ...) @_ZN5Yosys3logEPKcz(ptr noundef @.str.14)
  call void (ptr, ...) @_ZN5Yosys3logEPKcz(ptr noundef @.str.4)
  call void (ptr, ...) @_ZN5Yosys3logEPKcz(ptr noundef @.str.15)
  call void (ptr, ...) @_ZN5Yosys3logEPKcz(ptr noundef @.str.16)
  call void (ptr, ...) @_ZN5Yosys3logEPKcz(ptr noundef @.str.4)
  call void (ptr, ...) @_ZN5Yosys3logEPKcz(ptr noundef @.str.17)
  call void (ptr, ...) @_ZN5Yosys3logEPKcz(ptr noundef @.str.18)
  call void (ptr, ...) @_ZN5Yosys3logEPKcz(ptr noundef @.str.4)
  call void (ptr, ...) @_ZN5Yosys3logEPKcz(ptr noundef @.str.19)
  call void (ptr, ...) @_ZN5Yosys3logEPKcz(ptr noundef @.str.20)
  call void (ptr, ...) @_ZN5Yosys3logEPKcz(ptr noundef @.str.4)
  call void (ptr, ...) @_ZN5Yosys3logEPKcz(ptr noundef @.str.21)
  call void (ptr, ...) @_ZN5Yosys3logEPKcz(ptr noundef @.str.22)
  call void (ptr, ...) @_ZN5Yosys3logEPKcz(ptr noundef @.str.23)
  call void (ptr, ...) @_ZN5Yosys3logEPKcz(ptr noundef @.str.24)
  call void (ptr, ...) @_ZN5Yosys3logEPKcz(ptr noundef @.str.25)
  call void (ptr, ...) @_ZN5Yosys3logEPKcz(ptr noundef @.str.4)
  ret void
}